; Function Attrs: mustprogress nounwind uwtable
define hidden noundef ptr @_ZN11JfrCHeapObj13realloc_arrayEPcm(ptr noundef %0, i64 noundef %1) local_unnamed_addr #0 align 2 {
  %3 = tail call noundef ptr @_Z14ReallocateHeapPcm8MEMFLAGSN17AllocFailStrategy13AllocFailEnumE(ptr noundef %0, i64 noundef %1, i8 noundef zeroext 16, i32 noundef 1) #6
  %4 = icmp eq ptr %3, null
  br i1 %4, label %5, label %_ZL22hook_memory_allocationPKcm.exit

5:                                                ; preds = %2
  %6 = tail call noundef zeroext i1 @_ZN11JfrRecorder10is_createdEv() #6
  br i1 %6, label %10, label %7

7:                                                ; preds = %5
  %8 = load volatile ptr, ptr getelementptr inbounds (i8, ptr @_ZN16LogTagSetMappingILN6LogTag4typeE64ELS1_156ELS1_0ELS1_0ELS1_0ELS1_0EE7_tagsetE, i64 72), align 8
  %.not.i = icmp eq ptr %8, null
  br i1 %.not.i, label %_ZL22hook_memory_allocationPKcm.exit, label %9

9:                                                ; preds = %7
  tail call void (ptr, ...) @_ZN7LogImplILN6LogTag4typeE64ELS1_156ELS1_0ELS1_0ELS1_0ELS1_0EE5writeILN8LogLevel4typeE4EEEvPKcz(ptr noundef nonnull @.str, i64 noundef %1)
  br label %_ZL22hook_memory_allocationPKcm.exit

10:                                               ; preds = %5
  tail call void (ptr, i32, i64, i32, ptr, ...) @_Z23report_vm_out_of_memoryPKcim11VMErrorTypeS0_z(ptr noundef nonnull @.str.5, i32 noundef 84, i64 noundef %1, i32 noundef -536870911, ptr noundef nonnull @.str.6) #7
  unreachable

_ZL22hook_memory_allocationPKcm.exit:             ; preds = %2, %7, %9
  ret ptr %3
}